target datalayout = "e-m:e-p270:32:32-p271:32:32-p272:64:64-i64:64-i128:128-f80:128-n8:16:32:64-S128"
target triple = "x86_64-unknown-linux-gnu"

%struct.Node = type { i32, ptr, ptr, ptr, ptr, ptr, ptr, ptr, ptr, ptr, ptr, ptr, ptr, ptr, ptr, ptr, ptr, i8, ptr, ptr, ptr, ptr, ptr, ptr, i64, i64, ptr, ptr, ptr, ptr, ptr, ptr, ptr, i64, x86_fp80 }

; Function Attrs: nounwind uwtable
define dso_local ptr @new_cast(ptr noundef %expr, ptr noundef %ty) #0 {
entry:
  %expr.addr = alloca ptr, align 8
  %ty.addr = alloca ptr, align 8
  %node = alloca ptr, align 8
  store ptr %expr, ptr %expr.addr, align 8
  store ptr %ty, ptr %ty.addr, align 8
  %0 = load ptr, ptr %expr.addr, align 8
  call void @add_type(ptr noundef %0)
  %call = call noalias ptr @calloc(i64 noundef 1, i64 noundef 288) #8
  store ptr %call, ptr %node, align 8
  %1 = load ptr, ptr %node, align 8
  %kind = getelementptr inbounds %struct.Node, ptr %1, i32 0, i32 0
  store i32 43, ptr %kind, align 16
  %2 = load ptr, ptr %expr.addr, align 8
  %tok = getelementptr inbounds %struct.Node, ptr %2, i32 0, i32 3
  %3 = load ptr, ptr %tok, align 8
  %4 = load ptr, ptr %node, align 8
  %tok1 = getelementptr inbounds %struct.Node, ptr %4, i32 0, i32 3
  store ptr %3, ptr %tok1, align 8
  %5 = load ptr, ptr %expr.addr, align 8
  %6 = load ptr, ptr %node, align 8
  %lhs = getelementptr inbounds %struct.Node, ptr %6, i32 0, i32 4
  store ptr %5, ptr %lhs, align 16
  %7 = load ptr, ptr %ty.addr, align 8
  %call2 = call ptr @copy_type(ptr noundef %7)
  %8 = load ptr, ptr %node, align 8
  %ty3 = getelementptr inbounds %struct.Node, ptr %8, i32 0, i32 2
  store ptr %call2, ptr %ty3, align 16
  %9 = load ptr, ptr %node, align 8
  ret ptr %9
}