; Function Attrs: nounwind uwtable
define dso_local noalias noundef ptr @new_cast(ptr noundef %expr, ptr noundef %ty) local_unnamed_addr #0 {
entry:
  tail call void @add_type(ptr noundef %expr) #13
  %call = tail call noalias dereferenceable_or_null(288) ptr @calloc(i64 noundef 1, i64 noundef 288) #14
  store i32 43, ptr %call, align 16
  %tok = getelementptr inbounds %struct.Node, ptr %expr, i64 0, i32 3
  %0 = load ptr, ptr %tok, align 8
  %tok1 = getelementptr inbounds %struct.Node, ptr %call, i64 0, i32 3
  store ptr %0, ptr %tok1, align 8
  %lhs = getelementptr inbounds %struct.Node, ptr %call, i64 0, i32 4
  store ptr %expr, ptr %lhs, align 16
  %call2 = tail call ptr @copy_type(ptr noundef %ty) #13
  %ty3 = getelementptr inbounds %struct.Node, ptr %call, i64 0, i32 2
  store ptr %call2, ptr %ty3, align 16
  ret ptr %call
}